target datalayout = "e-m:e-p270:32:32-p271:32:32-p272:64:64-i64:64-i128:128-f80:128-n8:16:32:64-S128"
target triple = "x86_64-pc-linux-gnu"

%struct.H5FL_reg_gc_list_t = type { i64, ptr }
%struct.H5FL_reg_gc_node_t = type { ptr, ptr }
%struct.H5FL_reg_head_t = type { i8, i32, i32, ptr, i64, ptr }
%struct.H5FL_reg_node_t = type { ptr }

@H5FL_init_g = global i8 0, align 1
@H5_libterm_g = external global i8, align 1
@H5FL_reg_gc_head = internal global %struct.H5FL_reg_gc_list_t zeroinitializer, align 8
@.str.2 = private unnamed_addr constant [98 x i8] c"generated/home/dtcxzyw/WorkSpace/Projects/compilers/llvm-opt-benchmark/bench/hdf5/hdf5/src/H5FL.c\00", align 1
@H5E_RESOURCE_g = external global i64, align 8
@H5E_CANTGC_g = external global i64, align 8
@__func__.H5FL_reg_malloc = private unnamed_addr constant [16 x i8] c"H5FL_reg_malloc\00", align 1
@H5E_CANTINIT_g = external global i64, align 8
@.str.4 = private unnamed_addr constant [34 x i8] c"can't initialize 'regular' blocks\00", align 1
@H5E_NOSPACE_g = external global i64, align 8
@.str.5 = private unnamed_addr constant [25 x i8] c"memory allocation failed\00", align 1
@.str.7 = private unnamed_addr constant [35 x i8] c"memory allocation failed for chunk\00", align 1
@__func__.H5FL__reg_init = private unnamed_addr constant [15 x i8] c"H5FL__reg_init\00", align 1
@__func__.H5FL__malloc = private unnamed_addr constant [13 x i8] c"H5FL__malloc\00", align 1
@.str.18 = private unnamed_addr constant [44 x i8] c"garbage collection failed during allocation\00", align 1

; Function Attrs: nounwind uwtable
define internal ptr @H5FL__malloc(i64 noundef %0) #0 {
  %2 = alloca i64, align 8
  %3 = alloca ptr, align 8
  %4 = alloca i8, align 1
  store i64 %0, ptr %2, align 8, !tbaa !11
  call void @llvm.lifetime.start.p0(i64 8, ptr %3) #9
  store ptr null, ptr %3, align 8, !tbaa !69
  call void @llvm.lifetime.start.p0(i64 1, ptr %4) #9
  store i8 0, ptr %4, align 1, !tbaa !7
  %5 = load i8, ptr @H5FL_init_g, align 1, !tbaa !7, !range !9, !noundef !10
  %6 = trunc i8 %5 to i1
  br i1 %6, label %11, label %7

7:                                                ; preds = %1
  %8 = load i8, ptr @H5_libterm_g, align 1, !tbaa !7, !range !9, !noundef !10
  %9 = trunc i8 %8 to i1
  %10 = xor i1 %9, true
  br label %11

11:                                               ; preds = %7, %1
  %12 = phi i1 [ true, %1 ], [ %10, %7 ]
  %13 = xor i1 %12, true
  %14 = xor i1 %13, true
  %15 = zext i1 %14 to i32
  %16 = sext i32 %15 to i64
  %17 = call i64 @llvm.expect.i64(i64 %16, i64 1)
  %18 = icmp ne i64 %17, 0
  br i1 %18, label %19, label %71

19:                                               ; preds = %11
  %20 = load i64, ptr %2, align 8, !tbaa !11
  %21 = call noalias ptr @malloc(i64 noundef %20) #10
  store ptr %21, ptr %3, align 8, !tbaa !69
  %22 = icmp eq ptr null, %21
  br i1 %22, label %23, label %69

23:                                               ; preds = %19
  %24 = call i32 @H5FL_garbage_coll()
  %25 = icmp slt i32 %24, 0
  br i1 %25, label %26, label %45

26:                                               ; preds = %23
  br label %27

27:                                               ; preds = %26
  br label %28

28:                                               ; preds = %27
  br label %29

29:                                               ; preds = %28
  %30 = load i64, ptr @H5E_RESOURCE_g, align 8, !tbaa !11
  %31 = load i64, ptr @H5E_CANTGC_g, align 8, !tbaa !11
  %32 = call i32 (ptr, ptr, i32, i64, i64, ptr, ...) @H5E_printf_stack(ptr noundef @.str.2, ptr noundef @__func__.H5FL__malloc, i32 noundef 214, i64 noundef %30, i64 noundef %31, ptr noundef @.str.18)
  br label %33

33:                                               ; preds = %29
  br label %34

34:                                               ; preds = %33
  store i8 1, ptr %4, align 1, !tbaa !7
  %35 = load i8, ptr %4, align 1, !tbaa !7, !range !9, !noundef !10
  %36 = trunc i8 %35 to i1
  %37 = zext i1 %36 to i8
  store i8 %37, ptr %4, align 1, !tbaa !7
  br label %38

38:                                               ; preds = %34
  br label %39

39:                                               ; preds = %38
  br label %40

40:                                               ; preds = %39
  store ptr null, ptr %3, align 8, !tbaa !69
  br label %70

41:                                               ; No predecessors!
  br label %42

42:                                               ; preds = %41
  br label %43

43:                                               ; preds = %42
  br label %44

44:                                               ; preds = %43
  br label %45

45:                                               ; preds = %44, %23
  %46 = load i64, ptr %2, align 8, !tbaa !11
  %47 = call noalias ptr @malloc(i64 noundef %46) #10
  store ptr %47, ptr %3, align 8, !tbaa !69
  %48 = icmp eq ptr null, %47
  br i1 %48, label %49, label %68

49:                                               ; preds = %45
  br label %50

50:                                               ; preds = %49
  br label %51

51:                                               ; preds = %50
  br label %52

52:                                               ; preds = %51
  %53 = load i64, ptr @H5E_RESOURCE_g, align 8, !tbaa !11
  %54 = load i64, ptr @H5E_NOSPACE_g, align 8, !tbaa !11
  %55 = call i32 (ptr, ptr, i32, i64, i64, ptr, ...) @H5E_printf_stack(ptr noundef @.str.2, ptr noundef @__func__.H5FL__malloc, i32 noundef 218, i64 noundef %53, i64 noundef %54, ptr noundef @.str.7)
  br label %56

56:                                               ; preds = %52
  br label %57

57:                                               ; preds = %56
  store i8 1, ptr %4, align 1, !tbaa !7
  %58 = load i8, ptr %4, align 1, !tbaa !7, !range !9, !noundef !10
  %59 = trunc i8 %58 to i1
  %60 = zext i1 %59 to i8
  store i8 %60, ptr %4, align 1, !tbaa !7
  br label %61

61:                                               ; preds = %57
  br label %62

62:                                               ; preds = %61
  br label %63

63:                                               ; preds = %62
  store ptr null, ptr %3, align 8, !tbaa !69
  br label %70

64:                                               ; No predecessors!
  br label %65

65:                                               ; preds = %64
  br label %66

66:                                               ; preds = %65
  br label %67

67:                                               ; preds = %66
  br label %68

68:                                               ; preds = %67, %45
  br label %69

69:                                               ; preds = %68, %19
  br label %70

70:                                               ; preds = %69, %63, %40
  br label %71

71:                                               ; preds = %70, %11
  %72 = load ptr, ptr %3, align 8, !tbaa !69
  call void @llvm.lifetime.end.p0(i64 1, ptr %4) #9
  call void @llvm.lifetime.end.p0(i64 8, ptr %3) #9
  ret ptr %72
}

; Function Attrs: nounwind uwtable
define internal i32 @H5FL__reg_init(ptr noundef %0) #0 {
  %2 = alloca ptr, align 8
  %3 = alloca ptr, align 8
  %4 = alloca i32, align 4
  %5 = alloca i8, align 1
  store ptr %0, ptr %2, align 8, !tbaa !68
  call void @llvm.lifetime.start.p0(i64 8, ptr %3) #9
  call void @llvm.lifetime.start.p0(i64 4, ptr %4) #9
  store i32 0, ptr %4, align 4, !tbaa !3
  call void @llvm.lifetime.start.p0(i64 1, ptr %5) #9
  store i8 0, ptr %5, align 1, !tbaa !7
  %6 = load i8, ptr @H5FL_init_g, align 1, !tbaa !7, !range !9, !noundef !10
  %7 = trunc i8 %6 to i1
  br i1 %7, label %12, label %8

8:                                                ; preds = %1
  %9 = load i8, ptr @H5_libterm_g, align 1, !tbaa !7, !range !9, !noundef !10
  %10 = trunc i8 %9 to i1
  %11 = xor i1 %10, true
  br label %12

12:                                               ; preds = %8, %1
  %13 = phi i1 [ true, %1 ], [ %11, %8 ]
  %14 = xor i1 %13, true
  %15 = xor i1 %14, true
  %16 = zext i1 %15 to i32
  %17 = sext i32 %16 to i64
  %18 = call i64 @llvm.expect.i64(i64 %17, i64 1)
  %19 = icmp ne i64 %18, 0
  br i1 %19, label %20, label %61

20:                                               ; preds = %12
  %21 = call noalias ptr @malloc(i64 noundef 16) #10
  store ptr %21, ptr %3, align 8, !tbaa !13
  %22 = icmp eq ptr null, %21
  br i1 %22, label %23, label %42

23:                                               ; preds = %20
  br label %24

24:                                               ; preds = %23
  br label %25

25:                                               ; preds = %24
  br label %26

26:                                               ; preds = %25
  %27 = load i64, ptr @H5E_RESOURCE_g, align 8, !tbaa !11
  %28 = load i64, ptr @H5E_NOSPACE_g, align 8, !tbaa !11
  %29 = call i32 (ptr, ptr, i32, i64, i64, ptr, ...) @H5E_printf_stack(ptr noundef @.str.2, ptr noundef @__func__.H5FL__reg_init, i32 noundef 246, i64 noundef %27, i64 noundef %28, ptr noundef @.str.5)
  br label %30

30:                                               ; preds = %26
  br label %31

31:                                               ; preds = %30
  store i8 1, ptr %5, align 1, !tbaa !7
  %32 = load i8, ptr %5, align 1, !tbaa !7, !range !9, !noundef !10
  %33 = trunc i8 %32 to i1
  %34 = zext i1 %33 to i8
  store i8 %34, ptr %5, align 1, !tbaa !7
  br label %35

35:                                               ; preds = %31
  br label %36

36:                                               ; preds = %35
  br label %37

37:                                               ; preds = %36
  store i32 -1, ptr %4, align 4, !tbaa !3
  br label %60

38:                                               ; No predecessors!
  br label %39

39:                                               ; preds = %38
  br label %40

40:                                               ; preds = %39
  br label %41

41:                                               ; preds = %40
  br label %42

42:                                               ; preds = %41, %20
  %43 = load ptr, ptr %2, align 8, !tbaa !68
  %44 = load ptr, ptr %3, align 8, !tbaa !13
  %45 = getelementptr inbounds nuw %struct.H5FL_reg_gc_node_t, ptr %44, i32 0, i32 0
  store ptr %43, ptr %45, align 8, !tbaa !21
  %46 = load ptr, ptr getelementptr inbounds nuw (%struct.H5FL_reg_gc_list_t, ptr @H5FL_reg_gc_head, i32 0, i32 1), align 8, !tbaa !16
  %47 = load ptr, ptr %3, align 8, !tbaa !13
  %48 = getelementptr inbounds nuw %struct.H5FL_reg_gc_node_t, ptr %47, i32 0, i32 1
  store ptr %46, ptr %48, align 8, !tbaa !18
  %49 = load ptr, ptr %3, align 8, !tbaa !13
  store ptr %49, ptr getelementptr inbounds nuw (%struct.H5FL_reg_gc_list_t, ptr @H5FL_reg_gc_head, i32 0, i32 1), align 8, !tbaa !16
  %50 = load ptr, ptr %2, align 8, !tbaa !68
  %51 = getelementptr inbounds nuw %struct.H5FL_reg_head_t, ptr %50, i32 0, i32 0
  store i8 1, ptr %51, align 8, !tbaa !26
  %52 = load ptr, ptr %2, align 8, !tbaa !68
  %53 = getelementptr inbounds nuw %struct.H5FL_reg_head_t, ptr %52, i32 0, i32 4
  %54 = load i64, ptr %53, align 8, !tbaa !74
  %55 = icmp ult i64 %54, 8
  br i1 %55, label %56, label %59

56:                                               ; preds = %42
  %57 = load ptr, ptr %2, align 8, !tbaa !68
  %58 = getelementptr inbounds nuw %struct.H5FL_reg_head_t, ptr %57, i32 0, i32 4
  store i64 8, ptr %58, align 8, !tbaa !74
  br label %59

59:                                               ; preds = %56, %42
  br label %60

60:                                               ; preds = %59, %37
  br label %61

61:                                               ; preds = %60, %12
  %62 = load i32, ptr %4, align 4, !tbaa !3
  call void @llvm.lifetime.end.p0(i64 1, ptr %5) #9
  call void @llvm.lifetime.end.p0(i64 4, ptr %4) #9
  call void @llvm.lifetime.end.p0(i64 8, ptr %3) #9
  ret i32 %62
}

; Function Attrs: nounwind uwtable
define noalias ptr @H5FL_reg_malloc(ptr noundef %0) #0 {
  %2 = alloca ptr, align 8
  %3 = alloca ptr, align 8
  %4 = alloca i8, align 1
  store ptr %0, ptr %2, align 8, !tbaa !68
  call void @llvm.lifetime.start.p0(i64 8, ptr %3) #9
  store ptr null, ptr %3, align 8, !tbaa !69
  call void @llvm.lifetime.start.p0(i64 1, ptr %4) #9
  store i8 0, ptr %4, align 1, !tbaa !7
  %5 = load i8, ptr @H5FL_init_g, align 1, !tbaa !7, !range !9, !noundef !10
  %6 = trunc i8 %5 to i1
  br i1 %6, label %11, label %7

7:                                                ; preds = %1
  %8 = load i8, ptr @H5_libterm_g, align 1, !tbaa !7, !range !9, !noundef !10
  %9 = trunc i8 %8 to i1
  %10 = xor i1 %9, true
  br label %11

11:                                               ; preds = %7, %1
  %12 = phi i1 [ false, %1 ], [ %10, %7 ]
  %13 = xor i1 %12, true
  %14 = xor i1 %13, true
  %15 = zext i1 %14 to i32
  %16 = sext i32 %15 to i64
  %17 = call i64 @llvm.expect.i64(i64 %16, i64 0)
  %18 = icmp ne i64 %17, 0
  br i1 %18, label %19, label %20

19:                                               ; preds = %11
  store i8 1, ptr @H5FL_init_g, align 1, !tbaa !7
  br label %20

20:                                               ; preds = %19, %11
  %21 = load i8, ptr @H5FL_init_g, align 1, !tbaa !7, !range !9, !noundef !10
  %22 = trunc i8 %21 to i1
  br i1 %22, label %27, label %23

23:                                               ; preds = %20
  %24 = load i8, ptr @H5_libterm_g, align 1, !tbaa !7, !range !9, !noundef !10
  %25 = trunc i8 %24 to i1
  %26 = xor i1 %25, true
  br label %27

27:                                               ; preds = %23, %20
  %28 = phi i1 [ true, %20 ], [ %26, %23 ]
  %29 = xor i1 %28, true
  %30 = xor i1 %29, true
  %31 = zext i1 %30 to i32
  %32 = sext i32 %31 to i64
  %33 = call i64 @llvm.expect.i64(i64 %32, i64 1)
  %34 = icmp ne i64 %33, 0
  br i1 %34, label %35, label %121

35:                                               ; preds = %27
  %36 = load ptr, ptr %2, align 8, !tbaa !68
  %37 = getelementptr inbounds nuw %struct.H5FL_reg_head_t, ptr %36, i32 0, i32 0
  %38 = load i8, ptr %37, align 8, !tbaa !26, !range !9, !noundef !10
  %39 = trunc i8 %38 to i1
  br i1 %39, label %64, label %40

40:                                               ; preds = %35
  %41 = load ptr, ptr %2, align 8, !tbaa !68
  %42 = call i32 @H5FL__reg_init(ptr noundef %41)
  %43 = icmp slt i32 %42, 0
  br i1 %43, label %44, label %63

44:                                               ; preds = %40
  br label %45

45:                                               ; preds = %44
  br label %46

46:                                               ; preds = %45
  br label %47

47:                                               ; preds = %46
  %48 = load i64, ptr @H5E_RESOURCE_g, align 8, !tbaa !11
  %49 = load i64, ptr @H5E_CANTINIT_g, align 8, !tbaa !11
  %50 = call i32 (ptr, ptr, i32, i64, i64, ptr, ...) @H5E_printf_stack(ptr noundef @.str.2, ptr noundef @__func__.H5FL_reg_malloc, i32 noundef 345, i64 noundef %48, i64 noundef %49, ptr noundef @.str.4)
  br label %51

51:                                               ; preds = %47
  br label %52

52:                                               ; preds = %51
  store i8 1, ptr %4, align 1, !tbaa !7
  %53 = load i8, ptr %4, align 1, !tbaa !7, !range !9, !noundef !10
  %54 = trunc i8 %53 to i1
  %55 = zext i1 %54 to i8
  store i8 %55, ptr %4, align 1, !tbaa !7
  br label %56

56:                                               ; preds = %52
  br label %57

57:                                               ; preds = %56
  br label %58

58:                                               ; preds = %57
  store ptr null, ptr %3, align 8, !tbaa !69
  br label %120

59:                                               ; No predecessors!
  br label %60

60:                                               ; preds = %59
  br label %61

61:                                               ; preds = %60
  br label %62

62:                                               ; preds = %61
  br label %63

63:                                               ; preds = %62, %40
  br label %64

64:                                               ; preds = %63, %35
  %65 = load ptr, ptr %2, align 8, !tbaa !68
  %66 = getelementptr inbounds nuw %struct.H5FL_reg_head_t, ptr %65, i32 0, i32 5
  %67 = load ptr, ptr %66, align 8, !tbaa !70
  %68 = icmp ne ptr %67, null
  br i1 %68, label %69, label %89

69:                                               ; preds = %64
  %70 = load ptr, ptr %2, align 8, !tbaa !68
  %71 = getelementptr inbounds nuw %struct.H5FL_reg_head_t, ptr %70, i32 0, i32 5
  %72 = load ptr, ptr %71, align 8, !tbaa !70
  store ptr %72, ptr %3, align 8, !tbaa !69
  %73 = load ptr, ptr %2, align 8, !tbaa !68
  %74 = getelementptr inbounds nuw %struct.H5FL_reg_head_t, ptr %73, i32 0, i32 5
  %75 = load ptr, ptr %74, align 8, !tbaa !70
  %76 = getelementptr inbounds nuw %struct.H5FL_reg_node_t, ptr %75, i32 0, i32 0
  %77 = load ptr, ptr %76, align 8, !tbaa !71
  %78 = load ptr, ptr %2, align 8, !tbaa !68
  %79 = getelementptr inbounds nuw %struct.H5FL_reg_head_t, ptr %78, i32 0, i32 5
  store ptr %77, ptr %79, align 8, !tbaa !70
  %80 = load ptr, ptr %2, align 8, !tbaa !68
  %81 = getelementptr inbounds nuw %struct.H5FL_reg_head_t, ptr %80, i32 0, i32 2
  %82 = load i32, ptr %81, align 8, !tbaa !73
  %83 = add i32 %82, -1
  store i32 %83, ptr %81, align 8, !tbaa !73
  %84 = load ptr, ptr %2, align 8, !tbaa !68
  %85 = getelementptr inbounds nuw %struct.H5FL_reg_head_t, ptr %84, i32 0, i32 4
  %86 = load i64, ptr %85, align 8, !tbaa !74
  %87 = load i64, ptr @H5FL_reg_gc_head, align 8, !tbaa !75
  %88 = sub i64 %87, %86
  store i64 %88, ptr @H5FL_reg_gc_head, align 8, !tbaa !75
  br label %119

89:                                               ; preds = %64
  %90 = load ptr, ptr %2, align 8, !tbaa !68
  %91 = getelementptr inbounds nuw %struct.H5FL_reg_head_t, ptr %90, i32 0, i32 4
  %92 = load i64, ptr %91, align 8, !tbaa !74
  %93 = call ptr @H5FL__malloc(i64 noundef %92)
  store ptr %93, ptr %3, align 8, !tbaa !69
  %94 = icmp eq ptr null, %93
  br i1 %94, label %95, label %114

95:                                               ; preds = %89
  br label %96

96:                                               ; preds = %95
  br label %97

97:                                               ; preds = %96
  br label %98

98:                                               ; preds = %97
  %99 = load i64, ptr @H5E_RESOURCE_g, align 8, !tbaa !11
  %100 = load i64, ptr @H5E_NOSPACE_g, align 8, !tbaa !11
  %101 = call i32 (ptr, ptr, i32, i64, i64, ptr, ...) @H5E_printf_stack(ptr noundef @.str.2, ptr noundef @__func__.H5FL_reg_malloc, i32 noundef 364, i64 noundef %99, i64 noundef %100, ptr noundef @.str.5)
  br label %102

102:                                              ; preds = %98
  br label %103

103:                                              ; preds = %102
  store i8 1, ptr %4, align 1, !tbaa !7
  %104 = load i8, ptr %4, align 1, !tbaa !7, !range !9, !noundef !10
  %105 = trunc i8 %104 to i1
  %106 = zext i1 %105 to i8
  store i8 %106, ptr %4, align 1, !tbaa !7
  br label %107

107:                                              ; preds = %103
  br label %108

108:                                              ; preds = %107
  br label %109

109:                                              ; preds = %108
  store ptr null, ptr %3, align 8, !tbaa !69
  br label %120

110:                                              ; No predecessors!
  br label %111

111:                                              ; preds = %110
  br label %112

112:                                              ; preds = %111
  br label %113

113:                                              ; preds = %112
  br label %114

114:                                              ; preds = %113, %89
  %115 = load ptr, ptr %2, align 8, !tbaa !68
  %116 = getelementptr inbounds nuw %struct.H5FL_reg_head_t, ptr %115, i32 0, i32 1
  %117 = load i32, ptr %116, align 4, !tbaa !22
  %118 = add i32 %117, 1
  store i32 %118, ptr %116, align 4, !tbaa !22
  br label %119

119:                                              ; preds = %114, %69
  br label %120

120:                                              ; preds = %119, %109, %58
  br label %121

121:                                              ; preds = %120, %27
  %122 = load ptr, ptr %3, align 8, !tbaa !69
  call void @llvm.lifetime.end.p0(i64 1, ptr %4) #9
  call void @llvm.lifetime.end.p0(i64 8, ptr %3) #9
  ret ptr %122
}