; Function Attrs: nounwind uwtable
define noalias ptr @H5FL_reg_malloc(ptr noundef %0) local_unnamed_addr #0 {
  %2 = load i8, ptr @H5FL_init_g, align 1, !tbaa !3, !range !7, !noundef !8
  %3 = trunc nuw i8 %2 to i1
  %4 = load i8, ptr @H5_libterm_g, align 1, !range !7
  %5 = trunc nuw i8 %4 to i1
  %6 = select i1 %3, i1 true, i1 %5
  br i1 %6, label %7, label %.thread, !prof !15

.thread:                                          ; preds = %1
  store i8 1, ptr @H5FL_init_g, align 1, !tbaa !3
  br label %10

7:                                                ; preds = %1
  %8 = xor i1 %5, true
  %9 = select i1 %3, i1 true, i1 %8
  br i1 %9, label %10, label %68, !prof !87

10:                                               ; preds = %.thread, %7
  %11 = load i8, ptr %0, align 8, !tbaa !25, !range !7, !noundef !8
  %12 = trunc nuw i8 %11 to i1
  br i1 %12, label %H5FL__reg_init.exit.thread, label %13

13:                                               ; preds = %10
  %14 = tail call noalias dereferenceable_or_null(16) ptr @malloc(i64 noundef 16) #11
  %15 = icmp eq ptr %14, null
  br i1 %15, label %23, label %16

16:                                               ; preds = %13
  store ptr %0, ptr %14, align 8, !tbaa !19
  %17 = load ptr, ptr @H5FL_reg_gc_head.1, align 8, !tbaa !10
  %18 = getelementptr inbounds nuw i8, ptr %14, i64 8
  store ptr %17, ptr %18, align 8, !tbaa !16
  store ptr %14, ptr @H5FL_reg_gc_head.1, align 8, !tbaa !10
  store i8 1, ptr %0, align 8, !tbaa !25
  %19 = getelementptr inbounds nuw i8, ptr %0, i64 24
  %20 = load i64, ptr %19, align 8, !tbaa !72
  %21 = icmp ult i64 %20, 8
  br i1 %21, label %22, label %H5FL__reg_init.exit.thread

22:                                               ; preds = %16
  store i64 8, ptr %19, align 8, !tbaa !72
  br label %H5FL__reg_init.exit.thread

23:                                               ; preds = %13
  %24 = load i64, ptr @H5E_RESOURCE_g, align 8, !tbaa !86
  %25 = load i64, ptr @H5E_NOSPACE_g, align 8, !tbaa !86
  %26 = tail call i32 (ptr, ptr, i32, i64, i64, ptr, ...) @H5E_printf_stack(ptr noundef nonnull @.str.2, ptr noundef nonnull @__func__.H5FL__reg_init, i32 noundef 246, i64 noundef %24, i64 noundef %25, ptr noundef nonnull @.str.5) #10
  %27 = load i64, ptr @H5E_RESOURCE_g, align 8, !tbaa !86
  %28 = load i64, ptr @H5E_CANTINIT_g, align 8, !tbaa !86
  %29 = tail call i32 (ptr, ptr, i32, i64, i64, ptr, ...) @H5E_printf_stack(ptr noundef nonnull @.str.2, ptr noundef nonnull @__func__.H5FL_reg_malloc, i32 noundef 345, i64 noundef %27, i64 noundef %28, ptr noundef nonnull @.str.4) #10
  br label %68

H5FL__reg_init.exit.thread:                       ; preds = %16, %22, %10
  %30 = getelementptr inbounds nuw i8, ptr %0, i64 32
  %31 = load ptr, ptr %30, align 8, !tbaa !67
  %.not = icmp eq ptr %31, null
  br i1 %.not, label %41, label %32

32:                                               ; preds = %H5FL__reg_init.exit.thread
  %33 = load ptr, ptr %31, align 8, !tbaa !68
  store ptr %33, ptr %30, align 8, !tbaa !67
  %34 = getelementptr inbounds nuw i8, ptr %0, i64 8
  %35 = load i32, ptr %34, align 8, !tbaa !71
  %36 = add i32 %35, -1
  store i32 %36, ptr %34, align 8, !tbaa !71
  %37 = getelementptr inbounds nuw i8, ptr %0, i64 24
  %38 = load i64, ptr %37, align 8, !tbaa !72
  %39 = load i64, ptr @H5FL_reg_gc_head.0, align 8, !tbaa !73
  %40 = sub i64 %39, %38
  store i64 %40, ptr @H5FL_reg_gc_head.0, align 8, !tbaa !73
  br label %68

41:                                               ; preds = %H5FL__reg_init.exit.thread
  %42 = getelementptr inbounds nuw i8, ptr %0, i64 24
  %43 = load i64, ptr %42, align 8, !tbaa !72
  %44 = load i8, ptr @H5FL_init_g, align 1, !tbaa !3, !range !7, !noundef !8
  %45 = trunc nuw i8 %44 to i1
  %46 = load i8, ptr @H5_libterm_g, align 1, !range !7
  %47 = trunc nuw i8 %46 to i1
  %48 = xor i1 %47, true
  %49 = select i1 %45, i1 true, i1 %48
  br i1 %49, label %50, label %61, !prof !15

50:                                               ; preds = %41
  %51 = tail call noalias ptr @malloc(i64 noundef %43) #11
  %52 = icmp eq ptr %51, null
  br i1 %52, label %53, label %H5FL__malloc.exit

53:                                               ; preds = %50
  %54 = tail call i32 @H5FL_garbage_coll()
  %55 = tail call noalias ptr @malloc(i64 noundef %43) #11
  %56 = icmp eq ptr %55, null
  br i1 %56, label %57, label %H5FL__malloc.exit

57:                                               ; preds = %53
  %58 = load i64, ptr @H5E_RESOURCE_g, align 8, !tbaa !86
  %59 = load i64, ptr @H5E_NOSPACE_g, align 8, !tbaa !86
  %60 = tail call i32 (ptr, ptr, i32, i64, i64, ptr, ...) @H5E_printf_stack(ptr noundef nonnull @.str.2, ptr noundef nonnull @__func__.H5FL__malloc, i32 noundef 218, i64 noundef %58, i64 noundef %59, ptr noundef nonnull @.str.7) #10
  br label %61

61:                                               ; preds = %57, %41
  %62 = load i64, ptr @H5E_RESOURCE_g, align 8, !tbaa !86
  %63 = load i64, ptr @H5E_NOSPACE_g, align 8, !tbaa !86
  %64 = tail call i32 (ptr, ptr, i32, i64, i64, ptr, ...) @H5E_printf_stack(ptr noundef nonnull @.str.2, ptr noundef nonnull @__func__.H5FL_reg_malloc, i32 noundef 364, i64 noundef %62, i64 noundef %63, ptr noundef nonnull @.str.5) #10
  br label %68

H5FL__malloc.exit:                                ; preds = %53, %50
  %.0.i14 = phi ptr [ %55, %53 ], [ %51, %50 ]
  %65 = getelementptr inbounds nuw i8, ptr %0, i64 4
  %66 = load i32, ptr %65, align 4, !tbaa !20
  %67 = add i32 %66, 1
  store i32 %67, ptr %65, align 4, !tbaa !20
  br label %68

68:                                               ; preds = %23, %61, %H5FL__malloc.exit, %32, %7
  %.0 = phi ptr [ %31, %32 ], [ null, %61 ], [ %.0.i14, %H5FL__malloc.exit ], [ null, %23 ], [ null, %7 ]
  ret ptr %.0
}